ccopy_reg
_reconstructor
p0
(cusers
UserList
p1
c__builtin__
object
p2
Ntp3
Rp4
(dp5
S'remote_users'
p6
(lp7
g0
(cusers
User
p8
g2
Ntp9
Rp10
(dp11
S'mlist'
p12
(lp13
g0
(cmediums
EmailMedium
p14
g2
Ntp15
Rp16
(dp17
S'mailbox_server'
p18
g0
(cmediums
ImapServer
p19
g2
Ntp20
Rp21
(dp22
S'passwd'
p23
S'assignment3'
p24
sS'use_ssl'
p25
I01
sS'host'
p26
S'imap.gmail.com'
p27
sS'port'
p28
I993
sS'user'
p29
S'comp535test@gmail.com'
p30
sbsS'mtu'
p31
I1024
sS'address'
p32
S'comp535test@gmail.com'
p33
sbasS'name'
p34
S'alex'
p35
sS'key'
p36
g35
sbasS'local_user'
p37
g10
sb.