ccopy_reg
_reconstructor
p0
(cusers
UserList
p1
c__builtin__
object
p2
Ntp3
Rp4
(dp5
S'remote_users'
p6
(dp7
S'user_b'
p8
g0
(cusers
User
p9
g2
Ntp10
Rp11
(dp12
S'mlist'
p13
(lp14
g0
(cmediums
EmailMedium
p15
g2
Ntp16
Rp17
(dp18
S'mailbox_server'
p19
g0
(cmediums
PopServer
p20
g2
Ntp21
Rp22
(dp23
S'passwd'
p24
S'assignment3'
p25
sS'use_ssl'
p26
I01
sS'host'
p27
S'pop3.live.com'
p28
sS'port'
p29
I995
sS'user'
p30
S'comp535test2@hotmail.com'
p31
sbsS'mtu'
p32
I1024
sS'address'
p33
S'comp535test2@hotmail.com'
p34
sbag0
(g15
g2
Ntp35
Rp36
(dp37
g19
g0
(cmediums
ImapServer
p38
g2
Ntp39
Rp40
(dp41
g24
g25
sg26
I01
sg27
S'imap.gmail.com'
p42
sg29
I993
sg30
S'comp535test2@gmail.com'
p43
sbsg32
I1024
sg33
S'comp535test2@gmail.com'
p44
sbasS'name'
p45
g8
sS'key'
p46
g8
sbssS'local_user'
p47
g0
(g9
g2
Ntp48
Rp49
(dp50
g13
(lp51
g0
(g15
g2
Ntp52
Rp53
(dp54
g19
g0
(g38
g2
Ntp55
Rp56
(dp57
g24
S'assignment3'
p58
sg26
I01
sg27
S'imap.gmail.com'
p59
sg29
I993
sg30
S'comp535test@gmail.com'
p60
sbsg32
I1024
sg33
S'comp535test@gmail.com'
p61
sbag0
(g15
g2
Ntp62
Rp63
(dp64
g19
g0
(g20
g2
Ntp65
Rp66
(dp67
g24
S'assignment3'
p68
sg26
I01
sg27
S'pop3.live.com'
p69
sg29
I995
sg30
S'comp535test@hotmail.com'
p70
sbsg32
I1024
sg33
S'comp535test@hotmail.com'
p71
sbasg45
S'user_a'
p72
sg46
g72
sbsb.