ccopy_reg
_reconstructor
p0
(cusers
UserList
p1
c__builtin__
object
p2
Ntp3
Rp4
(dp5
S'remote_users'
p6
(dp7
S'alex'
p8
g0
(cusers
User
p9
g2
Ntp10
Rp11
(dp12
S'mlist'
p13
(lp14
g0
(cmediums
EmailMedium
p15
g2
Ntp16
Rp17
(dp18
S'mailbox_server'
p19
g0
(cmediums
ImapServer
p20
g2
Ntp21
Rp22
(dp23
S'passwd'
p24
S'assignment3'
p25
sS'use_ssl'
p26
I01
sS'host'
p27
S'imap.gmail.com'
p28
sS'port'
p29
I993
sS'user'
p30
S'comp535test@gmail.com'
p31
sbsS'mtu'
p32
I1024
sS'address'
p33
S'comp535test@gmail.com'
p34
sbasS'name'
p35
S'alex'
p36
sS'key'
p37
g36
sbssS'local_user'
p38
g11
sb.